Certificate:
    Data:
        Version: 3 (0x2)
        Serial Number: 1 (0x1)
    Signature Algorithm: sha256WithRSAEncryption
        Issuer: C=zh, ST=ShangHai, L=ShangHai, O=quancheng, OU=quancheng, CN=grpc/emailAddress=liushiming@quancheng-ec.com
        Validity
            Not Before: Oct 27 14:32:39 2016 GMT
            Not After : Oct 27 14:32:39 2017 GMT
        Subject: C=zh, ST=ShangHai, O=quancheng, OU=quancheng, CN=grpc/emailAddress=liushiming@quancheng-ec.com
        Subject Public Key Info:
            Public Key Algorithm: rsaEncryption
                Public-Key: (1024 bit)
                Modulus:
                    00:d9:1c:14:a9:08:fa:51:f3:6f:f4:ab:02:38:b2:
                    41:64:01:d4:0a:aa:df:68:8a:3e:21:a1:c3:a7:69:
                    17:8f:07:d0:42:1b:f8:50:4a:f6:29:97:2a:65:78:
                    52:70:3c:90:6f:e5:58:97:33:7e:57:d4:47:2b:a6:
                    f8:e1:74:a2:36:00:3d:85:7b:99:3b:7c:13:6d:a2:
                    5d:52:50:91:9d:7e:79:cb:c3:cf:6d:46:b0:44:bb:
                    5e:75:3e:6e:45:99:6a:24:d6:9e:89:51:9c:06:29:
                    e2:f8:71:6e:9e:25:0d:f8:0c:1e:91:6b:cb:0c:58:
                    e4:9f:82:c8:ef:af:0d:f4:73
                Exponent: 65537 (0x10001)
        X509v3 extensions:
            X509v3 Basic Constraints: 
                CA:FALSE
            Netscape Comment: 
                OpenSSL Generated Certificate
            X509v3 Subject Key Identifier: 
                DC:7A:C5:88:43:2F:6E:38:54:15:8F:44:E6:D1:A5:C6:3D:F5:12:6C
            X509v3 Authority Key Identifier: 
                keyid:40:FB:7B:AA:05:11:91:0B:08:44:20:57:E1:15:46:D2:6E:CE:35:28

    Signature Algorithm: sha256WithRSAEncryption
         c4:56:b9:dc:c8:62:7c:ae:c7:d4:5d:0b:00:a4:c5:28:83:aa:
         f0:39:21:a7:53:5b:6b:a5:31:ef:69:ce:8e:fa:5a:fa:34:3d:
         d8:2c:d4:2b:a1:27:f2:6c:c5:19:65:1b:f0:b5:e8:81:56:96:
         b1:0e:f4:1c:ac:75:ae:74:5b:7d:f8:65:c1:3d:e9:4a:e8:c7:
         31:08:98:64:84:9f:af:9f:26:48:83:0d:bb:e8:22:ff:3c:17:
         c8:ba:d7:28:64:ed:ab:63:a8:77:e6:9f:61:ef:3e:ed:c3:9d:
         52:a3:ee:6c:33:57:3d:bd:82:e2:a6:b1:f7:db:ea:8e:16:06:
         0f:ed:2f:b9:a9:27:1c:53:04:21:4a:64:f3:4c:e6:13:6a:3a:
         fa:54:62:83:67:6e:ad:c2:e5:ff:f6:38:2e:e6:2e:07:37:0a:
         4e:c1:2d:6b:2f:e8:7e:a0:a2:ff:5f:8c:c5:52:97:c1:ac:c0:
         c7:9b:8e:c9:14:ca:6b:03:0e:f6:19:5c:c4:bd:8c:cb:71:25:
         ac:d3:5f:c5:49:4f:2f:34:1b:df:c1:6f:9e:b5:fb:33:c7:71:
         0a:0c:f6:4c:99:e2:87:60:ee:a4:5e:14:f2:e3:27:f1:f7:88:
         d1:ca:a1:c7:25:02:1a:da:87:7e:48:40:04:fa:a5:ec:ef:2f:
         90:6e:3e:a9
-----BEGIN CERTIFICATE-----
MIIDjTCCAnWgAwIBAgIBATANBgkqhkiG9w0BAQsFADCBljELMAkGA1UEBhMCemgx
ETAPBgNVBAgMCFNoYW5nSGFpMREwDwYDVQQHDAhTaGFuZ0hhaTESMBAGA1UECgwJ
cXVhbmNoZW5nMRIwEAYDVQQLDAlxdWFuY2hlbmcxDTALBgNVBAMMBGdycGMxKjAo
BgkqhkiG9w0BCQEWG2xpdXNoaW1pbmdAcXVhbmNoZW5nLWVjLmNvbTAeFw0xNjEw
MjcxNDMyMzlaFw0xNzEwMjcxNDMyMzlaMIGDMQswCQYDVQQGEwJ6aDERMA8GA1UE
CAwIU2hhbmdIYWkxEjAQBgNVBAoMCXF1YW5jaGVuZzESMBAGA1UECwwJcXVhbmNo
ZW5nMQ0wCwYDVQQDDARncnBjMSowKAYJKoZIhvcNAQkBFhtsaXVzaGltaW5nQHF1
YW5jaGVuZy1lYy5jb20wgZ8wDQYJKoZIhvcNAQEBBQADgY0AMIGJAoGBANkcFKkI
+lHzb/SrAjiyQWQB1Aqq32iKPiGhw6dpF48H0EIb+FBK9imXKmV4UnA8kG/lWJcz
flfURyum+OF0ojYAPYV7mTt8E22iXVJQkZ1+ecvDz21GsES7XnU+bkWZaiTWnolR
nAYp4vhxbp4lDfgMHpFrywxY5J+CyO+vDfRzAgMBAAGjezB5MAkGA1UdEwQCMAAw
LAYJYIZIAYb4QgENBB8WHU9wZW5TU0wgR2VuZXJhdGVkIENlcnRpZmljYXRlMB0G
A1UdDgQWBBTcesWIQy9uOFQVj0Tm0aXGPfUSbDAfBgNVHSMEGDAWgBRA+3uqBRGR
CwhEIFfhFUbSbs41KDANBgkqhkiG9w0BAQsFAAOCAQEAxFa53MhifK7H1F0LAKTF
KIOq8Dkhp1Nba6Ux72nOjvpa+jQ92CzUK6En8mzFGWUb8LXogVaWsQ70HKx1rnRb
ffhlwT3pSujHMQiYZISfr58mSIMNu+gi/zwXyLrXKGTtq2Ood+afYe8+7cOdUqPu
bDNXPb2C4qax99vqjhYGD+0vuaknHFMEIUpk80zmE2o6+lRig2durcLl//Y4LuYu
BzcKTsEtay/ofqCi/1+MxVKXwazAx5uOyRTKawMO9hlcxL2My3ElrNNfxUlPLzQb
38FvnrX7M8dxCgz2TJnih2DupF4U8uMn8feI0cqhxyUCGtqHfkhABPql7O8vkG4+
qQ==
-----END CERTIFICATE-----
