Certificate:
    Data:
        Version: 3 (0x2)
        Serial Number: 2 (0x2)
    Signature Algorithm: sha256WithRSAEncryption
        Issuer: C=zh, ST=ShangHai, L=ShangHai, O=quancheng, OU=quancheng, CN=grpc/emailAddress=liushiming@quancheng-ec.com
        Validity
            Not Before: Oct 27 14:36:35 2016 GMT
            Not After : Oct 27 14:36:35 2017 GMT
        Subject: C=zh, ST=ShangHai, O=quancheng, OU=quancheng, CN=grpc/emailAddress=liushiming@quancheng-ec.com
        Subject Public Key Info:
            Public Key Algorithm: rsaEncryption
                Public-Key: (1024 bit)
                Modulus:
                    00:c2:5e:e6:3d:36:f2:bc:72:14:2f:61:94:28:1f:
                    9d:23:7f:51:a0:05:82:87:dc:eb:aa:34:fa:62:0d:
                    a7:5f:85:3e:a3:26:12:6e:6f:0c:f2:f7:f5:37:e0:
                    00:9e:d1:3e:13:e9:84:32:af:dc:53:cc:66:3d:6d:
                    bf:5e:ef:95:76:9b:15:e5:26:08:4e:54:f6:38:d0:
                    0f:b8:e0:1d:6a:48:23:a9:e9:1a:93:90:35:63:ca:
                    6c:e8:c5:1a:12:d2:38:7f:41:c2:5b:e9:8a:bf:74:
                    76:40:43:85:1e:a3:c9:b8:24:c5:7a:a9:14:5d:26:
                    46:86:cc:7d:28:70:49:66:c3
                Exponent: 65537 (0x10001)
        X509v3 extensions:
            X509v3 Basic Constraints: 
                CA:FALSE
            Netscape Comment: 
                OpenSSL Generated Certificate
            X509v3 Subject Key Identifier: 
                F1:33:70:11:E1:C0:A7:1D:F7:D9:34:8B:6F:1C:8A:44:44:81:91:6D
            X509v3 Authority Key Identifier: 
                keyid:40:FB:7B:AA:05:11:91:0B:08:44:20:57:E1:15:46:D2:6E:CE:35:28

    Signature Algorithm: sha256WithRSAEncryption
         ac:29:d3:78:de:b0:c2:39:8f:d6:a7:3d:13:0c:db:99:d1:13:
         e2:f1:87:5b:f2:f6:fc:3e:f8:b6:1f:8a:83:0d:85:da:44:ea:
         9a:66:50:ef:e4:83:38:c5:6c:85:3b:0e:a0:4d:b5:fd:1c:33:
         04:2c:39:db:e7:15:f6:f3:dc:e6:49:8d:c7:2b:44:9f:ae:1f:
         ff:eb:96:16:91:d2:f2:c0:4b:1d:be:20:52:68:46:68:43:01:
         04:13:c5:df:e4:89:03:2a:c2:ef:66:25:7f:2b:3a:a2:82:e3:
         24:43:51:00:0d:ba:12:e0:e3:91:84:64:58:2b:47:3c:85:f6:
         a8:c5:5a:c5:b5:05:ee:8d:fc:3f:e7:59:23:70:aa:c3:40:a4:
         45:bc:ac:3b:0c:64:36:94:99:cc:47:16:6b:91:6f:9f:08:8e:
         89:76:e4:fa:41:ea:a1:e0:fb:66:14:a9:04:1e:4c:a6:63:a9:
         e5:b1:6e:e1:44:35:94:08:7d:ba:31:de:4f:4f:0b:cb:fc:07:
         db:d1:ab:ae:98:08:79:d7:68:28:87:90:73:5a:b0:d6:16:5c:
         c9:75:47:f6:6e:d9:55:61:07:7c:af:96:82:59:2b:1d:08:96:
         d2:e0:14:ae:fc:37:eb:3c:c0:3f:ea:c0:02:65:e7:c1:aa:89:
         61:25:35:d6
-----BEGIN CERTIFICATE-----
MIIDjTCCAnWgAwIBAgIBAjANBgkqhkiG9w0BAQsFADCBljELMAkGA1UEBhMCemgx
ETAPBgNVBAgMCFNoYW5nSGFpMREwDwYDVQQHDAhTaGFuZ0hhaTESMBAGA1UECgwJ
cXVhbmNoZW5nMRIwEAYDVQQLDAlxdWFuY2hlbmcxDTALBgNVBAMMBGdycGMxKjAo
BgkqhkiG9w0BCQEWG2xpdXNoaW1pbmdAcXVhbmNoZW5nLWVjLmNvbTAeFw0xNjEw
MjcxNDM2MzVaFw0xNzEwMjcxNDM2MzVaMIGDMQswCQYDVQQGEwJ6aDERMA8GA1UE
CAwIU2hhbmdIYWkxEjAQBgNVBAoMCXF1YW5jaGVuZzESMBAGA1UECwwJcXVhbmNo
ZW5nMQ0wCwYDVQQDDARncnBjMSowKAYJKoZIhvcNAQkBFhtsaXVzaGltaW5nQHF1
YW5jaGVuZy1lYy5jb20wgZ8wDQYJKoZIhvcNAQEBBQADgY0AMIGJAoGBAMJe5j02
8rxyFC9hlCgfnSN/UaAFgofc66o0+mINp1+FPqMmEm5vDPL39TfgAJ7RPhPphDKv
3FPMZj1tv17vlXabFeUmCE5U9jjQD7jgHWpII6npGpOQNWPKbOjFGhLSOH9Bwlvp
ir90dkBDhR6jybgkxXqpFF0mRobMfShwSWbDAgMBAAGjezB5MAkGA1UdEwQCMAAw
LAYJYIZIAYb4QgENBB8WHU9wZW5TU0wgR2VuZXJhdGVkIENlcnRpZmljYXRlMB0G
A1UdDgQWBBTxM3AR4cCnHffZNItvHIpERIGRbTAfBgNVHSMEGDAWgBRA+3uqBRGR
CwhEIFfhFUbSbs41KDANBgkqhkiG9w0BAQsFAAOCAQEArCnTeN6wwjmP1qc9Ewzb
mdET4vGHW/L2/D74th+Kgw2F2kTqmmZQ7+SDOMVshTsOoE21/RwzBCw52+cV9vPc
5kmNxytEn64f/+uWFpHS8sBLHb4gUmhGaEMBBBPF3+SJAyrC72Ylfys6ooLjJENR
AA26EuDjkYRkWCtHPIX2qMVaxbUF7o38P+dZI3Cqw0CkRbysOwxkNpSZzEcWa5Fv
nwiOiXbk+kHqoeD7ZhSpBB5MpmOp5bFu4UQ1lAh9ujHeT08Ly/wH29GrrpgIeddo
KIeQc1qw1hZcyXVH9m7ZVWEHfK+WglkrHQiW0uAUrvw36zzAP+rAAmXnwaqJYSU1
1g==
-----END CERTIFICATE-----
